; Function Attrs: nounwind uwtable
define ptr @l_Lean_Meta_addSimpCongrTheoremEntry(ptr noundef %0, ptr noundef %1) #1 {
  %3 = getelementptr inbounds nuw i8, ptr %1, i64 16
  %4 = load ptr, ptr %3, align 8, !tbaa !9
  %5 = ptrtoint ptr %4 to i64
  %6 = and i64 %5, 1
  %.not = icmp eq i64 %6, 0
  br i1 %.not, label %7, label %lean_inc.exit25

7:                                                ; preds = %2
  %.val.i = load i32, ptr %4, align 4, !tbaa !4
  %8 = icmp sgt i32 %.val.i, 0
  br i1 %8, label %9, label %11, !prof !11

9:                                                ; preds = %7
  %10 = add nuw i32 %.val.i, 1
  store i32 %10, ptr %4, align 4, !tbaa !4
  br label %lean_inc.exit25

11:                                               ; preds = %7
  %.not.i26 = icmp eq i32 %.val.i, 0
  br i1 %.not.i26, label %lean_inc.exit25, label %12

12:                                               ; preds = %11
  tail call void @lean_inc_ref_cold(ptr noundef nonnull %4) #5
  br label %lean_inc.exit25

lean_inc.exit25:                                  ; preds = %12, %11, %9, %2
  %13 = ptrtoint ptr %0 to i64
  %14 = and i64 %13, 1
  %.not35 = icmp eq i64 %14, 0
  br i1 %.not35, label %15, label %lean_inc.exit24

15:                                               ; preds = %lean_inc.exit25
  %.val.i27 = load i32, ptr %0, align 4, !tbaa !4
  %16 = icmp sgt i32 %.val.i27, 0
  br i1 %16, label %17, label %19, !prof !11

17:                                               ; preds = %15
  %18 = add nuw i32 %.val.i27, 1
  store i32 %18, ptr %0, align 4, !tbaa !4
  br label %lean_inc.exit24

19:                                               ; preds = %15
  %.not.i28 = icmp eq i32 %.val.i27, 0
  br i1 %.not.i28, label %lean_inc.exit24, label %20

20:                                               ; preds = %19
  tail call void @lean_inc_ref_cold(ptr noundef nonnull %0) #5
  br label %lean_inc.exit24

lean_inc.exit24:                                  ; preds = %20, %19, %17, %lean_inc.exit25
  %21 = tail call ptr @l_Lean_SMap_find_x3f___at_Lean_Meta_SimpCongrTheorems_get___spec__1(ptr noundef %0, ptr noundef %4)
  %22 = ptrtoint ptr %21 to i64
  %23 = and i64 %22, 1
  %.not.i30 = icmp eq i64 %23, 0
  br i1 %.not.i30, label %27, label %24

24:                                               ; preds = %lean_inc.exit24
  %25 = lshr i64 %22, 1
  %26 = trunc i64 %25 to i32
  br label %lean_obj_tag.exit

27:                                               ; preds = %lean_inc.exit24
  %28 = getelementptr i8, ptr %21, i64 4
  %.val.i31 = load i32, ptr %28, align 4
  %29 = lshr i32 %.val.i31, 24
  br label %lean_obj_tag.exit

lean_obj_tag.exit:                                ; preds = %24, %27
  %.0.i = phi i32 [ %26, %24 ], [ %29, %27 ]
  %30 = icmp eq i32 %.0.i, 0
  br i1 %30, label %31, label %38

31:                                               ; preds = %lean_obj_tag.exit
  tail call void @lean_inc_heartbeat() #5
  %32 = tail call noalias ptr @mi_malloc_small(i64 noundef 24) #5
  %33 = icmp eq ptr %32, null
  br i1 %33, label %34, label %lean_alloc_ctor.exit

34:                                               ; preds = %31
  tail call void @lean_internal_panic_out_of_memory() #6
  unreachable

lean_alloc_ctor.exit:                             ; preds = %31
  %35 = getelementptr inbounds nuw i8, ptr %32, i64 4
  store i32 1, ptr %32, align 4, !tbaa !4
  store i32 16908312, ptr %35, align 4
  %36 = getelementptr inbounds nuw i8, ptr %32, i64 8
  store ptr %1, ptr %36, align 8, !tbaa !9
  %37 = getelementptr inbounds nuw i8, ptr %32, i64 16
  store ptr inttoptr (i64 1 to ptr), ptr %37, align 8, !tbaa !9
  br label %57

38:                                               ; preds = %lean_obj_tag.exit
  %39 = getelementptr inbounds nuw i8, ptr %21, i64 8
  %40 = load ptr, ptr %39, align 8, !tbaa !9
  %41 = ptrtoint ptr %40 to i64
  %42 = and i64 %41, 1
  %.not36 = icmp eq i64 %42, 0
  br i1 %.not36, label %43, label %lean_inc.exit

43:                                               ; preds = %38
  %.val.i32 = load i32, ptr %40, align 4, !tbaa !4
  %44 = icmp sgt i32 %.val.i32, 0
  br i1 %44, label %45, label %47, !prof !11

45:                                               ; preds = %43
  %46 = add nuw i32 %.val.i32, 1
  store i32 %46, ptr %40, align 4, !tbaa !4
  br label %lean_inc.exit

47:                                               ; preds = %43
  %.not.i33 = icmp eq i32 %.val.i32, 0
  br i1 %.not.i33, label %lean_inc.exit, label %48

48:                                               ; preds = %47
  tail call void @lean_inc_ref_cold(ptr noundef nonnull %40) #5
  br label %lean_inc.exit

lean_inc.exit:                                    ; preds = %48, %47, %45, %38
  br i1 %.not.i30, label %49, label %lean_dec.exit

49:                                               ; preds = %lean_inc.exit
  %50 = load i32, ptr %21, align 4, !tbaa !4
  %51 = icmp sgt i32 %50, 1
  br i1 %51, label %52, label %54, !prof !11

52:                                               ; preds = %49
  %53 = add nsw i32 %50, -1
  store i32 %53, ptr %21, align 4, !tbaa !4
  br label %lean_dec.exit

54:                                               ; preds = %49
  %.not.i = icmp eq i32 %50, 0
  br i1 %.not.i, label %lean_dec.exit, label %55

55:                                               ; preds = %54
  tail call void @lean_dec_ref_cold(ptr noundef nonnull %21) #5
  br label %lean_dec.exit

lean_dec.exit:                                    ; preds = %55, %54, %52, %lean_inc.exit
  %56 = tail call ptr @l_Lean_Meta_addSimpCongrTheoremEntry_insert(ptr noundef nonnull %1, ptr noundef %40)
  br label %57

57:                                               ; preds = %lean_dec.exit, %lean_alloc_ctor.exit
  %.sink = phi ptr [ %56, %lean_dec.exit ], [ %32, %lean_alloc_ctor.exit ]
  %58 = tail call ptr @l_Lean_SMap_insert___at_Lean_Meta_addSimpCongrTheoremEntry___spec__1(ptr noundef %0, ptr noundef %4, ptr noundef %.sink)
  ret ptr %58
}